target datalayout = "e-m:e-p270:32:32-p271:32:32-p272:64:64-i64:64-i128:128-f80:128-n8:16:32:64-S128"
target triple = "x86_64-unknown-linux-gnu"

%"struct.icu_75::FormattedStringBuilder::Field" = type { i8 }
%"struct.icu_75::number::impl::RangeMacroProps" = type { [8 x i8], %"class.icu_75::number::UnlocalizedNumberFormatter", %"class.icu_75::number::UnlocalizedNumberFormatter", i8, i32, i32, [4 x i8], %"class.icu_75::Locale" }
%"class.icu_75::number::UnlocalizedNumberFormatter" = type <{ %"class.icu_75::number::NumberFormatterSettings", [8 x i8] }>
%"class.icu_75::number::NumberFormatterSettings" = type { %"struct.icu_75::number::impl::MacroProps" }
%"struct.icu_75::number::impl::MacroProps" = type { [4 x i8], %"class.icu_75::number::Notation", %"class.icu_75::MeasureUnit", %"class.icu_75::MeasureUnit", %"class.icu_75::number::Precision", i32, %"class.icu_75::number::impl::Grouper", %"class.icu_75::number::impl::Padder", %"class.icu_75::number::IntegerWidth", %"class.icu_75::number::impl::SymbolsWrapper", i32, i32, i8, i32, %"class.icu_75::number::Scale", %"class.icu_75::number::impl::StringProp", %"class.icu_75::number::impl::StringProp", ptr, ptr, i32, [4 x i8], %"class.icu_75::Locale" }
%"class.icu_75::number::Notation" = type { i32, %"union.icu_75::number::Notation::NotationUnion" }
%"union.icu_75::number::Notation::NotationUnion" = type { %"struct.icu_75::number::Notation::NotationUnion::ScientificSettings" }
%"struct.icu_75::number::Notation::NotationUnion::ScientificSettings" = type { i8, i8, i16, i32 }
%"class.icu_75::MeasureUnit" = type <{ %"class.icu_75::UObject", ptr, i16, i8, [5 x i8] }>
%"class.icu_75::UObject" = type { ptr }
%"class.icu_75::number::Precision" = type <{ i32, [4 x i8], %"union.icu_75::number::Precision::PrecisionUnion", i32, [4 x i8] }>
%"union.icu_75::number::Precision::PrecisionUnion" = type { %"struct.icu_75::number::Precision::PrecisionUnion::IncrementSettings" }
%"struct.icu_75::number::Precision::PrecisionUnion::IncrementSettings" = type { i64, i16, i16 }
%"class.icu_75::number::impl::Grouper" = type { i16, i16, i16, i32 }
%"class.icu_75::number::impl::Padder" = type { i32, %union.anon }
%union.anon = type { %struct.anon }
%struct.anon = type { i32, i32 }
%"class.icu_75::number::IntegerWidth" = type <{ %union.anon.0, i8, [3 x i8] }>
%union.anon.0 = type { i32, [4 x i8] }
%"class.icu_75::number::impl::SymbolsWrapper" = type { i32, %union.anon.2 }
%union.anon.2 = type { ptr }
%"class.icu_75::number::Scale" = type <{ i32, [4 x i8], ptr, i32, [4 x i8] }>
%"class.icu_75::number::impl::StringProp" = type { ptr, i16, i32 }
%"class.icu_75::Locale" = type <{ %"class.icu_75::UObject", [12 x i8], [6 x i8], [4 x i8], [2 x i8], i32, [4 x i8], ptr, [157 x i8], [3 x i8], ptr, i8, [7 x i8] }>
%"class.icu_75::number::LocalizedNumberRangeFormatter" = type { %"class.icu_75::number::NumberRangeFormatterSettings.3", %"struct.std::atomic" }
%"class.icu_75::number::NumberRangeFormatterSettings.3" = type { %"struct.icu_75::number::impl::RangeMacroProps" }
%"struct.std::atomic" = type { %"struct.std::__atomic_base" }
%"struct.std::__atomic_base" = type { ptr }
%"class.icu_75::number::impl::NumberRangeFormatterImpl" = type { [8 x i8], %"class.icu_75::number::impl::NumberFormatterImpl", %"class.icu_75::number::impl::NumberFormatterImpl", i8, i32, i32, %"class.icu_75::SimpleFormatter", %"class.icu_75::number::impl::NumberFormatterImpl", %"class.icu_75::StandardPluralRanges" }
%"class.icu_75::SimpleFormatter" = type { [8 x i8], %"class.icu_75::UnicodeString" }
%"class.icu_75::UnicodeString" = type { %"class.icu_75::Replaceable", %"union.icu_75::UnicodeString::StackBufferOrFields" }
%"class.icu_75::Replaceable" = type { %"class.icu_75::UObject" }
%"union.icu_75::UnicodeString::StackBufferOrFields" = type { %struct.anon.7, [32 x i8] }
%struct.anon.7 = type { i16, i32, i32, ptr }
%"class.icu_75::number::impl::NumberFormatterImpl" = type { ptr, %"struct.icu_75::number::impl::MicroProps", %"class.icu_75::LocalPointer.10", %"class.icu_75::LocalPointer.12", %"class.icu_75::LocalPointer.14", %"class.icu_75::LocalPointer.16", %"class.icu_75::LocalPointer.18", %"class.icu_75::LocalPointer.20", %"class.icu_75::LocalPointer.22", %"class.icu_75::LocalPointer.24", %"class.icu_75::LocalPointer.26", %"class.icu_75::LocalPointer.28", %"class.icu_75::LocalPointer.30", %"class.icu_75::LocalPointer.32" }
%"struct.icu_75::number::impl::MicroProps" = type <{ %"class.icu_75::number::impl::MicroPropsGenerator", %"struct.icu_75::number::impl::SimpleMicroProps", %"class.icu_75::number::impl::RoundingImpl", %"class.icu_75::number::impl::Padder", %"class.icu_75::number::IntegerWidth", i32, [9 x i8], [3 x i8], ptr, ptr, ptr, ptr, %struct.anon.8, %"class.icu_75::MeasureUnit", %"class.icu_75::number::impl::IntMeasures", i32, i32, i8, [7 x i8] }>
%"class.icu_75::number::impl::MicroPropsGenerator" = type { ptr }
%"struct.icu_75::number::impl::SimpleMicroProps" = type { [4 x i8], %"class.icu_75::number::impl::Grouper", i8, i32, %"class.icu_75::UnicodeString", ptr }
%"class.icu_75::number::impl::RoundingImpl" = type <{ %"class.icu_75::number::Precision", i32, i8, [3 x i8] }>
%struct.anon.8 = type { %"class.icu_75::number::impl::ScientificModifier", %"class.icu_75::number::impl::EmptyModifier", %"class.icu_75::number::impl::EmptyModifier", %"class.icu_75::number::impl::MultiplierFormatHandler", %"class.icu_75::number::impl::SimpleModifier" }
%"class.icu_75::number::impl::ScientificModifier" = type { %"class.icu_75::number::impl::Modifier", i32, ptr }
%"class.icu_75::number::impl::Modifier" = type { ptr }
%"class.icu_75::number::impl::EmptyModifier" = type <{ %"class.icu_75::number::impl::Modifier", i8, [7 x i8] }>
%"class.icu_75::number::impl::MultiplierFormatHandler" = type { %"class.icu_75::number::impl::MicroPropsGenerator", %"class.icu_75::number::Scale", ptr }
%"class.icu_75::number::impl::SimpleModifier" = type { %"class.icu_75::number::impl::Modifier", %"class.icu_75::UnicodeString", %"struct.icu_75::FormattedStringBuilder::Field", i8, i32, i32, i32, %"struct.icu_75::number::impl::Modifier::Parameters" }
%"struct.icu_75::number::impl::Modifier::Parameters" = type { ptr, i32, i32 }
%"class.icu_75::number::impl::IntMeasures" = type <{ %"class.icu_75::MaybeStackArray.9", i32, [4 x i8] }>
%"class.icu_75::MaybeStackArray.9" = type { ptr, i32, i8, [2 x i64] }
%"class.icu_75::LocalPointer.10" = type { %"class.icu_75::LocalPointerBase.11" }
%"class.icu_75::LocalPointerBase.11" = type { ptr }
%"class.icu_75::LocalPointer.12" = type { %"class.icu_75::LocalPointerBase.13" }
%"class.icu_75::LocalPointerBase.13" = type { ptr }
%"class.icu_75::LocalPointer.14" = type { %"class.icu_75::LocalPointerBase.15" }
%"class.icu_75::LocalPointerBase.15" = type { ptr }
%"class.icu_75::LocalPointer.16" = type { %"class.icu_75::LocalPointerBase.17" }
%"class.icu_75::LocalPointerBase.17" = type { ptr }
%"class.icu_75::LocalPointer.18" = type { %"class.icu_75::LocalPointerBase.19" }
%"class.icu_75::LocalPointerBase.19" = type { ptr }
%"class.icu_75::LocalPointer.20" = type { %"class.icu_75::LocalPointerBase.21" }
%"class.icu_75::LocalPointerBase.21" = type { ptr }
%"class.icu_75::LocalPointer.22" = type { %"class.icu_75::LocalPointerBase.23" }
%"class.icu_75::LocalPointerBase.23" = type { ptr }
%"class.icu_75::LocalPointer.24" = type { %"class.icu_75::LocalPointerBase.25" }
%"class.icu_75::LocalPointerBase.25" = type { ptr }
%"class.icu_75::LocalPointer.26" = type { %"class.icu_75::LocalPointerBase.27" }
%"class.icu_75::LocalPointerBase.27" = type { ptr }
%"class.icu_75::LocalPointer.28" = type { %"class.icu_75::LocalPointerBase.29" }
%"class.icu_75::LocalPointerBase.29" = type { ptr }
%"class.icu_75::LocalPointer.30" = type { %"class.icu_75::LocalPointerBase.31" }
%"class.icu_75::LocalPointerBase.31" = type { ptr }
%"class.icu_75::LocalPointer.32" = type { %"class.icu_75::LocalPointerBase.33" }
%"class.icu_75::LocalPointerBase.33" = type { ptr }
%"class.icu_75::StandardPluralRanges" = type { %"class.icu_75::MaybeStackArray.34", i32, [4 x i8] }
%"class.icu_75::MaybeStackArray.34" = type <{ ptr, i32, i8, [3 x i8], [3 x %"struct.icu_75::StandardPluralRanges::StandardPluralRangeTriple"], [4 x i8] }>
%"struct.icu_75::StandardPluralRanges::StandardPluralRangeTriple" = type { i32, i32, i32 }

; Function Attrs: mustprogress uwtable
define linkonce_odr void @_ZN6icu_7515MaybeStackArrayINS_20StandardPluralRanges25StandardPluralRangeTripleELi3EE12releaseArrayEv(ptr noundef nonnull align 8 dereferenceable(52) %this) #1 comdat align 2 {
entry:
  %this.addr = alloca ptr, align 8
  store ptr %this, ptr %this.addr, align 8
  %this1 = load ptr, ptr %this.addr, align 8
  %needToRelease = getelementptr inbounds %"class.icu_75::MaybeStackArray.34", ptr %this1, i32 0, i32 2
  %0 = load i8, ptr %needToRelease, align 4
  %tobool = icmp ne i8 %0, 0
  br i1 %tobool, label %if.then, label %if.end

if.then:                                          ; preds = %entry
  %ptr = getelementptr inbounds %"class.icu_75::MaybeStackArray.34", ptr %this1, i32 0, i32 0
  %1 = load ptr, ptr %ptr, align 8
  call void @uprv_free_75(ptr noundef %1)
  br label %if.end

if.end:                                           ; preds = %if.then, %entry
  ret void
}

; Function Attrs: mustprogress nounwind uwtable
define linkonce_odr void @_ZN6icu_7515MaybeStackArrayINS_20StandardPluralRanges25StandardPluralRangeTripleELi3EED2Ev(ptr noundef nonnull align 8 dereferenceable(52) %this) unnamed_addr #0 comdat align 2 personality ptr @__gxx_personality_v0 {
entry:
  %this.addr = alloca ptr, align 8
  store ptr %this, ptr %this.addr, align 8
  %this1 = load ptr, ptr %this.addr, align 8
  invoke void @_ZN6icu_7515MaybeStackArrayINS_20StandardPluralRanges25StandardPluralRangeTripleELi3EE12releaseArrayEv(ptr noundef nonnull align 8 dereferenceable(52) %this1)
          to label %invoke.cont unwind label %terminate.lpad

invoke.cont:                                      ; preds = %entry
  ret void

terminate.lpad:                                   ; preds = %entry
  %0 = landingpad { ptr, i32 }
          catch ptr null
  %1 = extractvalue { ptr, i32 } %0, 0
  call void @__clang_call_terminate(ptr %1) #11
  unreachable
}

; Function Attrs: mustprogress nounwind uwtable
define linkonce_odr void @_ZN6icu_7520StandardPluralRangesD2Ev(ptr noundef nonnull align 8 dereferenceable(60) %this) unnamed_addr #0 comdat align 2 {
entry:
  %this.addr = alloca ptr, align 8
  store ptr %this, ptr %this.addr, align 8
  %this1 = load ptr, ptr %this.addr, align 8
  %fTriples = getelementptr inbounds %"class.icu_75::StandardPluralRanges", ptr %this1, i32 0, i32 0
  call void @_ZN6icu_7515MaybeStackArrayINS_20StandardPluralRanges25StandardPluralRangeTripleELi3EED2Ev(ptr noundef nonnull align 8 dereferenceable(52) %fTriples) #9
  ret void
}

; Function Attrs: mustprogress uwtable
define linkonce_odr noundef nonnull align 8 dereferenceable(1208) ptr @_ZN6icu_756number4impl15RangeMacroPropsaSERKS2_(ptr noundef nonnull align 8 dereferenceable(1208) %this, ptr noundef nonnull align 8 dereferenceable(1208) %0) #1 comdat align 2 {
entry:
  %this.addr = alloca ptr, align 8
  %.addr = alloca ptr, align 8
  store ptr %this, ptr %this.addr, align 8
  store ptr %0, ptr %.addr, align 8
  %this1 = load ptr, ptr %this.addr, align 8
  %formatter1 = getelementptr inbounds %"struct.icu_75::number::impl::RangeMacroProps", ptr %this1, i32 0, i32 1
  %1 = load ptr, ptr %.addr, align 8
  %formatter12 = getelementptr inbounds %"struct.icu_75::number::impl::RangeMacroProps", ptr %1, i32 0, i32 1
  %call = call noundef nonnull align 8 dereferenceable(473) ptr @_ZN6icu_756number26UnlocalizedNumberFormatteraSERKS1_(ptr noundef nonnull align 8 dereferenceable(473) %formatter1, ptr noundef nonnull align 8 dereferenceable(473) %formatter12)
  %formatter2 = getelementptr inbounds %"struct.icu_75::number::impl::RangeMacroProps", ptr %this1, i32 0, i32 2
  %2 = load ptr, ptr %.addr, align 8
  %formatter23 = getelementptr inbounds %"struct.icu_75::number::impl::RangeMacroProps", ptr %2, i32 0, i32 2
  %call4 = call noundef nonnull align 8 dereferenceable(473) ptr @_ZN6icu_756number26UnlocalizedNumberFormatteraSERKS1_(ptr noundef nonnull align 8 dereferenceable(473) %formatter2, ptr noundef nonnull align 8 dereferenceable(473) %formatter23)
  %singleFormatter = getelementptr inbounds %"struct.icu_75::number::impl::RangeMacroProps", ptr %this1, i32 0, i32 3
  %3 = load ptr, ptr %.addr, align 8
  %singleFormatter5 = getelementptr inbounds %"struct.icu_75::number::impl::RangeMacroProps", ptr %3, i32 0, i32 3
  call void @llvm.memcpy.p0.p0.i64(ptr align 8 %singleFormatter, ptr align 8 %singleFormatter5, i64 12, i1 false)
  %locale = getelementptr inbounds %"struct.icu_75::number::impl::RangeMacroProps", ptr %this1, i32 0, i32 7
  %4 = load ptr, ptr %.addr, align 8
  %locale6 = getelementptr inbounds %"struct.icu_75::number::impl::RangeMacroProps", ptr %4, i32 0, i32 7
  %call7 = call noundef nonnull align 8 dereferenceable(217) ptr @_ZN6icu_756LocaleaSERKS0_(ptr noundef nonnull align 8 dereferenceable(217) %locale, ptr noundef nonnull align 8 dereferenceable(217) %locale6)
  ret ptr %this1
}

; Function Attrs: mustprogress nounwind uwtable
define linkonce_odr void @_ZN6icu_756number4impl24NumberRangeFormatterImplD2Ev(ptr noundef nonnull align 8 dereferenceable(1960) %this) unnamed_addr #0 comdat align 2 {
entry:
  %this.addr = alloca ptr, align 8
  store ptr %this, ptr %this.addr, align 8
  %this1 = load ptr, ptr %this.addr, align 8
  %fPluralRanges = getelementptr inbounds %"class.icu_75::number::impl::NumberRangeFormatterImpl", ptr %this1, i32 0, i32 8
  call void @_ZN6icu_7520StandardPluralRangesD2Ev(ptr noundef nonnull align 8 dereferenceable(60) %fPluralRanges) #9
  %fApproximatelyFormatter = getelementptr inbounds %"class.icu_75::number::impl::NumberRangeFormatterImpl", ptr %this1, i32 0, i32 7
  call void @_ZN6icu_756number4impl19NumberFormatterImplD2Ev(ptr noundef nonnull align 8 dereferenceable(600) %fApproximatelyFormatter) #9
  %fRangeFormatter = getelementptr inbounds %"class.icu_75::number::impl::NumberRangeFormatterImpl", ptr %this1, i32 0, i32 6
  call void @_ZN6icu_7515SimpleFormatterD1Ev(ptr noundef nonnull align 8 dereferenceable(72) %fRangeFormatter) #9
  %formatterImpl2 = getelementptr inbounds %"class.icu_75::number::impl::NumberRangeFormatterImpl", ptr %this1, i32 0, i32 2
  call void @_ZN6icu_756number4impl19NumberFormatterImplD2Ev(ptr noundef nonnull align 8 dereferenceable(600) %formatterImpl2) #9
  %formatterImpl1 = getelementptr inbounds %"class.icu_75::number::impl::NumberRangeFormatterImpl", ptr %this1, i32 0, i32 1
  call void @_ZN6icu_756number4impl19NumberFormatterImplD2Ev(ptr noundef nonnull align 8 dereferenceable(600) %formatterImpl1) #9
  ret void
}

; Function Attrs: mustprogress nounwind uwtable
define linkonce_odr noundef ptr @_ZNSt6atomicIPN6icu_756number4impl24NumberRangeFormatterImplEE8exchangeES4_St12memory_order(ptr noundef nonnull align 8 dereferenceable(8) %this, ptr noundef %__p, i32 noundef %__m) #0 comdat align 2 {
entry:
  %this.addr.i = alloca ptr, align 8
  %__p.addr.i = alloca ptr, align 8
  %__m.addr.i = alloca i32, align 4
  %.atomictmp.i = alloca ptr, align 8
  %atomic-temp.i = alloca ptr, align 8
  %this.addr = alloca ptr, align 8
  %__p.addr = alloca ptr, align 8
  %__m.addr = alloca i32, align 4
  store ptr %this, ptr %this.addr, align 8
  store ptr %__p, ptr %__p.addr, align 8
  store i32 %__m, ptr %__m.addr, align 4
  %this1 = load ptr, ptr %this.addr, align 8
  %_M_b = getelementptr inbounds %"struct.std::atomic", ptr %this1, i32 0, i32 0
  %0 = load ptr, ptr %__p.addr, align 8
  %1 = load i32, ptr %__m.addr, align 4
  store ptr %_M_b, ptr %this.addr.i, align 8
  store ptr %0, ptr %__p.addr.i, align 8
  store i32 %1, ptr %__m.addr.i, align 4
  %this1.i = load ptr, ptr %this.addr.i, align 8
  %2 = load i32, ptr %__m.addr.i, align 4
  %3 = load ptr, ptr %__p.addr.i, align 8
  store ptr %3, ptr %.atomictmp.i, align 8
  switch i32 %2, label %monotonic.i [
    i32 1, label %acquire.i
    i32 2, label %acquire.i
    i32 3, label %release.i
    i32 4, label %acqrel.i
    i32 5, label %seqcst.i
  ]

monotonic.i:                                      ; preds = %entry
  %4 = load i64, ptr %.atomictmp.i, align 8
  %5 = atomicrmw xchg ptr %this1.i, i64 %4 monotonic, align 8
  store i64 %5, ptr %atomic-temp.i, align 8
  br label %_ZNSt13__atomic_baseIPN6icu_756number4impl24NumberRangeFormatterImplEE8exchangeES4_St12memory_order.exit

acquire.i:                                        ; preds = %entry, %entry
  %6 = load i64, ptr %.atomictmp.i, align 8
  %7 = atomicrmw xchg ptr %this1.i, i64 %6 acquire, align 8
  store i64 %7, ptr %atomic-temp.i, align 8
  br label %_ZNSt13__atomic_baseIPN6icu_756number4impl24NumberRangeFormatterImplEE8exchangeES4_St12memory_order.exit

release.i:                                        ; preds = %entry
  %8 = load i64, ptr %.atomictmp.i, align 8
  %9 = atomicrmw xchg ptr %this1.i, i64 %8 release, align 8
  store i64 %9, ptr %atomic-temp.i, align 8
  br label %_ZNSt13__atomic_baseIPN6icu_756number4impl24NumberRangeFormatterImplEE8exchangeES4_St12memory_order.exit

acqrel.i:                                         ; preds = %entry
  %10 = load i64, ptr %.atomictmp.i, align 8
  %11 = atomicrmw xchg ptr %this1.i, i64 %10 acq_rel, align 8
  store i64 %11, ptr %atomic-temp.i, align 8
  br label %_ZNSt13__atomic_baseIPN6icu_756number4impl24NumberRangeFormatterImplEE8exchangeES4_St12memory_order.exit

seqcst.i:                                         ; preds = %entry
  %12 = load i64, ptr %.atomictmp.i, align 8
  %13 = atomicrmw xchg ptr %this1.i, i64 %12 seq_cst, align 8
  store i64 %13, ptr %atomic-temp.i, align 8
  br label %_ZNSt13__atomic_baseIPN6icu_756number4impl24NumberRangeFormatterImplEE8exchangeES4_St12memory_order.exit

_ZNSt13__atomic_baseIPN6icu_756number4impl24NumberRangeFormatterImplEE8exchangeES4_St12memory_order.exit: ; preds = %seqcst.i, %acqrel.i, %release.i, %acquire.i, %monotonic.i
  %14 = load ptr, ptr %atomic-temp.i, align 8
  ret ptr %14
}

; Function Attrs: mustprogress uwtable
define linkonce_odr noundef nonnull align 8 dereferenceable(1208) ptr @_ZN6icu_756number28NumberRangeFormatterSettingsINS0_29LocalizedNumberRangeFormatterEEaSERKS3_(ptr noundef nonnull align 8 dereferenceable(1208) %this, ptr noundef nonnull align 8 dereferenceable(1208) %0) #1 comdat align 2 {
entry:
  %this.addr = alloca ptr, align 8
  %.addr = alloca ptr, align 8
  store ptr %this, ptr %this.addr, align 8
  store ptr %0, ptr %.addr, align 8
  %this1 = load ptr, ptr %this.addr, align 8
  %fMacros = getelementptr inbounds %"class.icu_75::number::NumberRangeFormatterSettings.3", ptr %this1, i32 0, i32 0
  %1 = load ptr, ptr %.addr, align 8
  %fMacros2 = getelementptr inbounds %"class.icu_75::number::NumberRangeFormatterSettings.3", ptr %1, i32 0, i32 0
  %call = call noundef nonnull align 8 dereferenceable(1208) ptr @_ZN6icu_756number4impl15RangeMacroPropsaSERKS2_(ptr noundef nonnull align 8 dereferenceable(1208) %fMacros, ptr noundef nonnull align 8 dereferenceable(1208) %fMacros2)
  ret ptr %this1
}

; Function Attrs: mustprogress uwtable
define noundef nonnull align 8 dereferenceable(1216) ptr @_ZN6icu_756number29LocalizedNumberRangeFormatteraSERKS1_(ptr noundef nonnull align 8 dereferenceable(1216) %this, ptr noundef nonnull align 8 dereferenceable(1216) %other) #1 align 2 {
entry:
  %retval = alloca ptr, align 8
  %this.addr = alloca ptr, align 8
  %other.addr = alloca ptr, align 8
  store ptr %this, ptr %this.addr, align 8
  store ptr %other, ptr %other.addr, align 8
  %this1 = load ptr, ptr %this.addr, align 8
  %0 = load ptr, ptr %other.addr, align 8
  %cmp = icmp eq ptr %this1, %0
  br i1 %cmp, label %if.then, label %if.end

if.then:                                          ; preds = %entry
  store ptr %this1, ptr %retval, align 8
  br label %return

if.end:                                           ; preds = %entry
  %1 = load ptr, ptr %other.addr, align 8
  %call = call noundef nonnull align 8 dereferenceable(1208) ptr @_ZN6icu_756number28NumberRangeFormatterSettingsINS0_29LocalizedNumberRangeFormatterEEaSERKS3_(ptr noundef nonnull align 8 dereferenceable(1208) %this1, ptr noundef nonnull align 8 dereferenceable(1208) %1)
  %fAtomicFormatter = getelementptr inbounds %"class.icu_75::number::LocalizedNumberRangeFormatter", ptr %this1, i32 0, i32 1
  %call2 = call noundef ptr @_ZNSt6atomicIPN6icu_756number4impl24NumberRangeFormatterImplEE8exchangeES4_St12memory_order(ptr noundef nonnull align 8 dereferenceable(8) %fAtomicFormatter, ptr noundef null, i32 noundef 5) #9
  %isnull = icmp eq ptr %call2, null
  br i1 %isnull, label %delete.end, label %delete.notnull

delete.notnull:                                   ; preds = %if.end
  call void @_ZN6icu_756number4impl24NumberRangeFormatterImplD2Ev(ptr noundef nonnull align 8 dereferenceable(1960) %call2) #9
  call void @_ZN6icu_757UMemorydlEPv(ptr noundef %call2) #9
  br label %delete.end

delete.end:                                       ; preds = %delete.notnull, %if.end
  store ptr %this1, ptr %retval, align 8
  br label %return

return:                                           ; preds = %delete.end, %if.then
  %2 = load ptr, ptr %retval, align 8
  ret ptr %2
}