; Function Attrs: mustprogress uwtable
define noundef nonnull align 8 dereferenceable(1216) ptr @_ZN6icu_756number29LocalizedNumberRangeFormatteraSERKS1_(ptr noundef nonnull returned align 8 dereferenceable(1216) %this, ptr noundef nonnull align 8 dereferenceable(1216) %other) local_unnamed_addr #1 align 2 personality ptr @__gxx_personality_v0 {
entry:
  %cmp = icmp eq ptr %this, %other
  br i1 %cmp, label %return, label %if.end

if.end:                                           ; preds = %entry
  %formatter1.i.i = getelementptr inbounds i8, ptr %this, i64 8
  %formatter12.i.i = getelementptr inbounds i8, ptr %other, i64 8
  %call.i.i = tail call noundef nonnull align 8 dereferenceable(473) ptr @_ZN6icu_756number26UnlocalizedNumberFormatteraSERKS1_(ptr noundef nonnull align 8 dereferenceable(473) %formatter1.i.i, ptr noundef nonnull align 8 dereferenceable(473) %formatter12.i.i)
  %formatter2.i.i = getelementptr inbounds i8, ptr %this, i64 488
  %formatter23.i.i = getelementptr inbounds i8, ptr %other, i64 488
  %call4.i.i = tail call noundef nonnull align 8 dereferenceable(473) ptr @_ZN6icu_756number26UnlocalizedNumberFormatteraSERKS1_(ptr noundef nonnull align 8 dereferenceable(473) %formatter2.i.i, ptr noundef nonnull align 8 dereferenceable(473) %formatter23.i.i)
  %singleFormatter.i.i = getelementptr inbounds i8, ptr %this, i64 968
  %singleFormatter5.i.i = getelementptr inbounds i8, ptr %other, i64 968
  tail call void @llvm.memcpy.p0.p0.i64(ptr noundef nonnull align 8 dereferenceable(12) %singleFormatter.i.i, ptr noundef nonnull align 8 dereferenceable(12) %singleFormatter5.i.i, i64 12, i1 false)
  %locale.i.i = getelementptr inbounds i8, ptr %this, i64 984
  %locale6.i.i = getelementptr inbounds i8, ptr %other, i64 984
  %call7.i.i = tail call noundef nonnull align 8 dereferenceable(217) ptr @_ZN6icu_756LocaleaSERKS0_(ptr noundef nonnull align 8 dereferenceable(217) %locale.i.i, ptr noundef nonnull align 8 dereferenceable(217) %locale6.i.i)
  %fAtomicFormatter = getelementptr inbounds i8, ptr %this, i64 1208
  %0 = atomicrmw xchg ptr %fAtomicFormatter, i64 0 seq_cst, align 8
  %atomic-temp.i.0.i = inttoptr i64 %0 to ptr
  %isnull = icmp eq i64 %0, 0
  br i1 %isnull, label %return, label %delete.notnull

delete.notnull:                                   ; preds = %if.end
  %needToRelease.i.i.i.i = getelementptr inbounds i8, ptr %atomic-temp.i.0.i, i64 1908
  %1 = load i8, ptr %needToRelease.i.i.i.i, align 4
  %tobool.not.i.i.i.i = icmp eq i8 %1, 0
  br i1 %tobool.not.i.i.i.i, label %_ZN6icu_756number4impl24NumberRangeFormatterImplD2Ev.exit, label %if.then.i.i.i.i

if.then.i.i.i.i:                                  ; preds = %delete.notnull
  %fPluralRanges.i = getelementptr inbounds i8, ptr %atomic-temp.i.0.i, i64 1896
  %2 = load ptr, ptr %fPluralRanges.i, align 8
  invoke void @uprv_free_75(ptr noundef %2)
          to label %_ZN6icu_756number4impl24NumberRangeFormatterImplD2Ev.exit unwind label %terminate.lpad.i.i.i

terminate.lpad.i.i.i:                             ; preds = %if.then.i.i.i.i
  %3 = landingpad { ptr, i32 }
          catch ptr null
  %4 = extractvalue { ptr, i32 } %3, 0
  tail call void @__clang_call_terminate(ptr %4) #12
  unreachable

_ZN6icu_756number4impl24NumberRangeFormatterImplD2Ev.exit: ; preds = %delete.notnull, %if.then.i.i.i.i
  %fApproximatelyFormatter.i = getelementptr inbounds i8, ptr %atomic-temp.i.0.i, i64 1296
  tail call void @_ZN6icu_756number4impl19NumberFormatterImplD2Ev(ptr noundef nonnull align 8 dereferenceable(600) %fApproximatelyFormatter.i) #10
  %fRangeFormatter.i = getelementptr inbounds i8, ptr %atomic-temp.i.0.i, i64 1224
  tail call void @_ZN6icu_7515SimpleFormatterD1Ev(ptr noundef nonnull align 8 dereferenceable(72) %fRangeFormatter.i) #10
  %formatterImpl2.i = getelementptr inbounds i8, ptr %atomic-temp.i.0.i, i64 608
  tail call void @_ZN6icu_756number4impl19NumberFormatterImplD2Ev(ptr noundef nonnull align 8 dereferenceable(600) %formatterImpl2.i) #10
  %formatterImpl1.i = getelementptr inbounds i8, ptr %atomic-temp.i.0.i, i64 8
  tail call void @_ZN6icu_756number4impl19NumberFormatterImplD2Ev(ptr noundef nonnull align 8 dereferenceable(600) %formatterImpl1.i) #10
  tail call void @_ZN6icu_757UMemorydlEPv(ptr noundef nonnull %atomic-temp.i.0.i) #10
  br label %return

return:                                           ; preds = %if.end, %_ZN6icu_756number4impl24NumberRangeFormatterImplD2Ev.exit, %entry
  ret ptr %this
}